target datalayout = "e-m:e-p270:32:32-p271:32:32-p272:64:64-i64:64-i128:128-f80:128-n8:16:32:64-S128"
target triple = "x86_64-pc-linux-gnu"

; Function Attrs: nounwind uwtable
define internal double @m_sinpi(double noundef %0) #0 {
  %2 = alloca double, align 8
  %3 = alloca double, align 8
  %4 = alloca double, align 8
  %5 = alloca i32, align 4
  store double %0, ptr %2, align 8, !tbaa !13
  call void @llvm.lifetime.start.p0(i64 8, ptr %3) #10
  call void @llvm.lifetime.start.p0(i64 8, ptr %4) #10
  call void @llvm.lifetime.start.p0(i64 4, ptr %5) #10
  %6 = load double, ptr %2, align 8, !tbaa !13
  %7 = call double @llvm.fabs.f64(double %6)
  %8 = call double @fmod(double noundef %7, double noundef 2.000000e+00) #10, !tbaa !17
  store double %8, ptr %3, align 8, !tbaa !13
  %9 = load double, ptr %3, align 8, !tbaa !13
  %10 = fmul double 2.000000e+00, %9
  %11 = call double @llvm.round.f64(double %10)
  %12 = fptosi double %11 to i32
  store i32 %12, ptr %5, align 4, !tbaa !17
  %13 = load i32, ptr %5, align 4, !tbaa !17
  switch i32 %13, label %39 [
    i32 0, label %14
    i32 1, label %18
    i32 2, label %23
    i32 3, label %28
    i32 4, label %34
  ]

14:                                               ; preds = %1
  %15 = load double, ptr %3, align 8, !tbaa !13
  %16 = fmul double 0x400921FB54442D18, %15
  %17 = call double @sin(double noundef %16) #10, !tbaa !17
  store double %17, ptr %4, align 8, !tbaa !13
  br label %40

18:                                               ; preds = %1
  %19 = load double, ptr %3, align 8, !tbaa !13
  %20 = fsub double %19, 5.000000e-01
  %21 = fmul double 0x400921FB54442D18, %20
  %22 = call double @cos(double noundef %21) #10, !tbaa !17
  store double %22, ptr %4, align 8, !tbaa !13
  br label %40

23:                                               ; preds = %1
  %24 = load double, ptr %3, align 8, !tbaa !13
  %25 = fsub double 1.000000e+00, %24
  %26 = fmul double 0x400921FB54442D18, %25
  %27 = call double @sin(double noundef %26) #10, !tbaa !17
  store double %27, ptr %4, align 8, !tbaa !13
  br label %40

28:                                               ; preds = %1
  %29 = load double, ptr %3, align 8, !tbaa !13
  %30 = fsub double %29, 1.500000e+00
  %31 = fmul double 0x400921FB54442D18, %30
  %32 = call double @cos(double noundef %31) #10, !tbaa !17
  %33 = fneg double %32
  store double %33, ptr %4, align 8, !tbaa !13
  br label %40

34:                                               ; preds = %1
  %35 = load double, ptr %3, align 8, !tbaa !13
  %36 = fsub double %35, 2.000000e+00
  %37 = fmul double 0x400921FB54442D18, %36
  %38 = call double @sin(double noundef %37) #10, !tbaa !17
  store double %38, ptr %4, align 8, !tbaa !13
  br label %40

39:                                               ; preds = %1
  unreachable

40:                                               ; preds = %34, %28, %23, %18, %14
  %41 = load double, ptr %2, align 8, !tbaa !13
  %42 = call double @llvm.copysign.f64(double 1.000000e+00, double %41)
  %43 = load double, ptr %4, align 8, !tbaa !13
  %44 = fmul double %42, %43
  call void @llvm.lifetime.end.p0(i64 4, ptr %5) #10
  call void @llvm.lifetime.end.p0(i64 8, ptr %4) #10
  call void @llvm.lifetime.end.p0(i64 8, ptr %3) #10
  ret double %44
}

; Function Attrs: nounwind uwtable
define internal double @lanczos_sum(double noundef %0) #0 {
  %2 = alloca double, align 8
  %3 = alloca double, align 8
  %4 = alloca double, align 8
  %5 = alloca i32, align 4
  store double %0, ptr %2, align 8, !tbaa !13
  call void @llvm.lifetime.start.p0(i64 8, ptr %3) #10
  store double 0.000000e+00, ptr %3, align 8, !tbaa !13
  call void @llvm.lifetime.start.p0(i64 8, ptr %4) #10
  store double 0.000000e+00, ptr %4, align 8, !tbaa !13
  call void @llvm.lifetime.start.p0(i64 4, ptr %5) #10
  %6 = load double, ptr %2, align 8, !tbaa !13
  %7 = fcmp olt double %6, 5.000000e+00
  br i1 %7, label %8, label %29

8:                                                ; preds = %1
  store i32 13, ptr %5, align 4, !tbaa !17
  br label %9

9:                                                ; preds = %13, %8
  %10 = load i32, ptr %5, align 4, !tbaa !17
  %11 = add i32 %10, -1
  store i32 %11, ptr %5, align 4, !tbaa !17
  %12 = icmp sge i32 %11, 0
  br i1 %12, label %13, label %28

13:                                               ; preds = %9
  %14 = load double, ptr %3, align 8, !tbaa !13
  %15 = load double, ptr %2, align 8, !tbaa !13
  %16 = load i32, ptr %5, align 4, !tbaa !17
  %17 = sext i32 %16 to i64
  %18 = getelementptr [13 x double], ptr @lanczos_num_coeffs, i64 0, i64 %17
  %19 = load double, ptr %18, align 8, !tbaa !13
  %20 = call double @llvm.fmuladd.f64(double %14, double %15, double %19)
  store double %20, ptr %3, align 8, !tbaa !13
  %21 = load double, ptr %4, align 8, !tbaa !13
  %22 = load double, ptr %2, align 8, !tbaa !13
  %23 = load i32, ptr %5, align 4, !tbaa !17
  %24 = sext i32 %23 to i64
  %25 = getelementptr [13 x double], ptr @lanczos_den_coeffs, i64 0, i64 %24
  %26 = load double, ptr %25, align 8, !tbaa !13
  %27 = call double @llvm.fmuladd.f64(double %21, double %22, double %26)
  store double %27, ptr %4, align 8, !tbaa !13
  br label %9, !llvm.loop !69

28:                                               ; preds = %9
  br label %54

29:                                               ; preds = %1
  store i32 0, ptr %5, align 4, !tbaa !17
  br label %30

30:                                               ; preds = %50, %29
  %31 = load i32, ptr %5, align 4, !tbaa !17
  %32 = icmp slt i32 %31, 13
  br i1 %32, label %33, label %53

33:                                               ; preds = %30
  %34 = load double, ptr %3, align 8, !tbaa !13
  %35 = load double, ptr %2, align 8, !tbaa !13
  %36 = fdiv double %34, %35
  %37 = load i32, ptr %5, align 4, !tbaa !17
  %38 = sext i32 %37 to i64
  %39 = getelementptr [13 x double], ptr @lanczos_num_coeffs, i64 0, i64 %38
  %40 = load double, ptr %39, align 8, !tbaa !13
  %41 = fadd double %36, %40
  store double %41, ptr %3, align 8, !tbaa !13
  %42 = load double, ptr %4, align 8, !tbaa !13
  %43 = load double, ptr %2, align 8, !tbaa !13
  %44 = fdiv double %42, %43
  %45 = load i32, ptr %5, align 4, !tbaa !17
  %46 = sext i32 %45 to i64
  %47 = getelementptr [13 x double], ptr @lanczos_den_coeffs, i64 0, i64 %46
  %48 = load double, ptr %47, align 8, !tbaa !13
  %49 = fadd double %44, %48
  store double %49, ptr %4, align 8, !tbaa !13
  br label %50

50:                                               ; preds = %33
  %51 = load i32, ptr %5, align 4, !tbaa !17
  %52 = add i32 %51, 1
  store i32 %52, ptr %5, align 4, !tbaa !17
  br label %30, !llvm.loop !70

53:                                               ; preds = %30
  br label %54

54:                                               ; preds = %53, %28
  %55 = load double, ptr %3, align 8, !tbaa !13
  %56 = load double, ptr %4, align 8, !tbaa !13
  %57 = fdiv double %55, %56
  call void @llvm.lifetime.end.p0(i64 4, ptr %5) #10
  call void @llvm.lifetime.end.p0(i64 8, ptr %4) #10
  call void @llvm.lifetime.end.p0(i64 8, ptr %3) #10
  ret double %57
}

; Function Attrs: nounwind uwtable
define internal double @m_lgamma(double noundef %0) #0 {
  %2 = alloca double, align 8
  %3 = alloca double, align 8
  %4 = alloca double, align 8
  %5 = alloca double, align 8
  %6 = alloca i32, align 4
  store double %0, ptr %3, align 8, !tbaa !13
  call void @llvm.lifetime.start.p0(i64 8, ptr %4) #10
  call void @llvm.lifetime.start.p0(i64 8, ptr %5) #10
  %7 = load double, ptr %3, align 8, !tbaa !13
  %8 = call i1 @llvm.is.fpclass.f64(double %7, i32 504)
  br i1 %8, label %15, label %9

9:                                                ; preds = %1
  %10 = load double, ptr %3, align 8, !tbaa !13
  %11 = call i1 @llvm.is.fpclass.f64(double %10, i32 3)
  br i1 %11, label %12, label %14

12:                                               ; preds = %9
  %13 = load double, ptr %3, align 8, !tbaa !13
  store double %13, ptr %2, align 8
  store i32 1, ptr %6, align 4
  br label %78

14:                                               ; preds = %9
  store double 0x7FF0000000000000, ptr %2, align 8
  store i32 1, ptr %6, align 4
  br label %78

15:                                               ; preds = %1
  %16 = load double, ptr %3, align 8, !tbaa !13
  %17 = load double, ptr %3, align 8, !tbaa !13
  %18 = call double @llvm.floor.f64(double %17)
  %19 = fcmp oeq double %16, %18
  br i1 %19, label %20, label %29

20:                                               ; preds = %15
  %21 = load double, ptr %3, align 8, !tbaa !13
  %22 = fcmp ole double %21, 2.000000e+00
  br i1 %22, label %23, label %29

23:                                               ; preds = %20
  %24 = load double, ptr %3, align 8, !tbaa !13
  %25 = fcmp ole double %24, 0.000000e+00
  br i1 %25, label %26, label %28

26:                                               ; preds = %23
  %27 = call ptr @__errno_location() #12
  store i32 33, ptr %27, align 4, !tbaa !17
  store double 0x7FF0000000000000, ptr %2, align 8
  store i32 1, ptr %6, align 4
  br label %78

28:                                               ; preds = %23
  store double 0.000000e+00, ptr %2, align 8
  store i32 1, ptr %6, align 4
  br label %78

29:                                               ; preds = %20, %15
  %30 = load double, ptr %3, align 8, !tbaa !13
  %31 = call double @llvm.fabs.f64(double %30)
  store double %31, ptr %5, align 8, !tbaa !13
  %32 = load double, ptr %5, align 8, !tbaa !13
  %33 = fcmp olt double %32, 0x3BC79CA10C924223
  br i1 %33, label %34, label %38

34:                                               ; preds = %29
  %35 = load double, ptr %5, align 8, !tbaa !13
  %36 = call double @log(double noundef %35) #10, !tbaa !17
  %37 = fneg double %36
  store double %37, ptr %2, align 8
  store i32 1, ptr %6, align 4
  br label %78

38:                                               ; preds = %29
  %39 = load double, ptr %5, align 8, !tbaa !13
  %40 = call double @lanczos_sum(double noundef %39)
  %41 = call double @log(double noundef %40) #10, !tbaa !17
  %42 = fsub double %41, 0x40181945B9800000
  store double %42, ptr %4, align 8, !tbaa !13
  %43 = load double, ptr %5, align 8, !tbaa !13
  %44 = fsub double %43, 5.000000e-01
  %45 = load double, ptr %5, align 8, !tbaa !13
  %46 = fadd double %45, 0x40181945B9800000
  %47 = fsub double %46, 5.000000e-01
  %48 = call double @log(double noundef %47) #10, !tbaa !17
  %49 = fsub double %48, 1.000000e+00
  %50 = load double, ptr %4, align 8, !tbaa !13
  %51 = call double @llvm.fmuladd.f64(double %44, double %49, double %50)
  store double %51, ptr %4, align 8, !tbaa !13
  %52 = load double, ptr %3, align 8, !tbaa !13
  %53 = fcmp olt double %52, 0.000000e+00
  br i1 %53, label %54, label %65

54:                                               ; preds = %38
  %55 = load double, ptr %5, align 8, !tbaa !13
  %56 = call double @m_sinpi(double noundef %55)
  %57 = call double @llvm.fabs.f64(double %56)
  %58 = call double @log(double noundef %57) #10, !tbaa !17
  %59 = fsub double 0x3FF250D048E7A1BD, %58
  %60 = load double, ptr %5, align 8, !tbaa !13
  %61 = call double @log(double noundef %60) #10, !tbaa !17
  %62 = fsub double %59, %61
  %63 = load double, ptr %4, align 8, !tbaa !13
  %64 = fsub double %62, %63
  store double %64, ptr %4, align 8, !tbaa !13
  br label %65

65:                                               ; preds = %54, %38
  %66 = load double, ptr %4, align 8, !tbaa !13
  %67 = call double @llvm.fabs.f64(double %66) #11
  %68 = fcmp oeq double %67, 0x7FF0000000000000
  %69 = bitcast double %66 to i64
  %70 = icmp slt i64 %69, 0
  %71 = select i1 %70, i32 -1, i32 1
  %72 = select i1 %68, i32 %71, i32 0
  %73 = icmp ne i32 %72, 0
  br i1 %73, label %74, label %76

74:                                               ; preds = %65
  %75 = call ptr @__errno_location() #12
  store i32 34, ptr %75, align 4, !tbaa !17
  br label %76

76:                                               ; preds = %74, %65
  %77 = load double, ptr %4, align 8, !tbaa !13
  store double %77, ptr %2, align 8
  store i32 1, ptr %6, align 4
  br label %78

78:                                               ; preds = %76, %34, %28, %26, %14, %12
  call void @llvm.lifetime.end.p0(i64 8, ptr %5) #10
  call void @llvm.lifetime.end.p0(i64 8, ptr %4) #10
  %79 = load double, ptr %2, align 8
  ret double %79
}