; Function Attrs: nofree nounwind memory(write) uwtable
define internal double @m_lgamma(double noundef %0) #11 {
  %2 = tail call double @llvm.fabs.f64(double %0)
  %3 = fcmp ueq double %2, 0x7FF0000000000000
  br i1 %3, label %4, label %6

4:                                                ; preds = %1
  %5 = fcmp uno double %0, 0.000000e+00
  %. = select i1 %5, double %0, double 0x7FF0000000000000
  br label %82

6:                                                ; preds = %1
  %7 = tail call double @llvm.floor.f64(double %0)
  %8 = fcmp oeq double %0, %7
  %9 = fcmp ole double %0, 2.000000e+00
  %or.cond = and i1 %9, %8
  br i1 %or.cond, label %10, label %14

10:                                               ; preds = %6
  %11 = fcmp ugt double %0, 0.000000e+00
  br i1 %11, label %82, label %12

12:                                               ; preds = %10
  %13 = tail call ptr @__errno_location() #17
  store i32 33, ptr %13, align 4, !tbaa !14
  br label %82

14:                                               ; preds = %6
  %15 = fcmp olt double %2, 0x3BC79CA10C924223
  br i1 %15, label %16, label %19

16:                                               ; preds = %14
  %17 = tail call double @log(double noundef %2) #16, !tbaa !14
  %18 = fneg double %17
  br label %82

19:                                               ; preds = %14
  %20 = fcmp olt double %2, 5.000000e+00
  br i1 %20, label %.preheader.i, label %.preheader25.i

.preheader.i:                                     ; preds = %19, %.preheader.i
  %indvars.iv37.i = phi i64 [ %indvars.iv.next38.i, %.preheader.i ], [ 12, %19 ]
  %.01731.i = phi double [ %26, %.preheader.i ], [ 0.000000e+00, %19 ]
  %.01930.i = phi double [ %23, %.preheader.i ], [ 0.000000e+00, %19 ]
  %21 = getelementptr [13 x double], ptr @lanczos_num_coeffs, i64 0, i64 %indvars.iv37.i
  %22 = load double, ptr %21, align 8, !tbaa !33
  %23 = tail call double @llvm.fmuladd.f64(double %.01930.i, double %2, double %22)
  %24 = getelementptr [13 x double], ptr @lanczos_den_coeffs, i64 0, i64 %indvars.iv37.i
  %25 = load double, ptr %24, align 8, !tbaa !33
  %26 = tail call double @llvm.fmuladd.f64(double %.01731.i, double %2, double %25)
  %indvars.iv.next38.i = add nsw i64 %indvars.iv37.i, -1
  %.not.i = icmp eq i64 %indvars.iv37.i, 0
  br i1 %.not.i, label %lanczos_sum.exit, label %.preheader.i, !llvm.loop !64

.preheader25.i:                                   ; preds = %19, %.preheader25.i
  %indvars.iv.i = phi i64 [ %indvars.iv.next.i, %.preheader25.i ], [ 0, %19 ]
  %.228.i = phi double [ %34, %.preheader25.i ], [ 0.000000e+00, %19 ]
  %.22127.i = phi double [ %30, %.preheader25.i ], [ 0.000000e+00, %19 ]
  %27 = fdiv double %.22127.i, %2
  %28 = getelementptr [13 x double], ptr @lanczos_num_coeffs, i64 0, i64 %indvars.iv.i
  %29 = load double, ptr %28, align 8, !tbaa !33
  %30 = fadd double %27, %29
  %31 = fdiv double %.228.i, %2
  %32 = getelementptr [13 x double], ptr @lanczos_den_coeffs, i64 0, i64 %indvars.iv.i
  %33 = load double, ptr %32, align 8, !tbaa !33
  %34 = fadd double %31, %33
  %indvars.iv.next.i = add nuw nsw i64 %indvars.iv.i, 1
  %exitcond.not.i = icmp eq i64 %indvars.iv.next.i, 13
  br i1 %exitcond.not.i, label %lanczos_sum.exit, label %.preheader25.i, !llvm.loop !65

lanczos_sum.exit:                                 ; preds = %.preheader25.i, %.preheader.i
  %.120.i = phi double [ %23, %.preheader.i ], [ %30, %.preheader25.i ]
  %.118.i = phi double [ %26, %.preheader.i ], [ %34, %.preheader25.i ]
  %35 = fdiv double %.120.i, %.118.i
  %36 = tail call double @log(double noundef %35) #16, !tbaa !14
  %37 = fadd double %36, 0xC0181945B9800000
  %38 = fadd double %2, -5.000000e-01
  %39 = fadd double %2, 0x40181945B9800000
  %40 = fadd double %39, -5.000000e-01
  %41 = tail call double @log(double noundef %40) #16, !tbaa !14
  %42 = fadd double %41, -1.000000e+00
  %43 = tail call double @llvm.fmuladd.f64(double %38, double %42, double %37)
  %44 = fcmp olt double %0, 0.000000e+00
  br i1 %44, label %45, label %77

45:                                               ; preds = %lanczos_sum.exit
  %46 = frem nnan double %2, 2.000000e+00
  %47 = fmul double %46, 2.000000e+00
  %48 = tail call double @llvm.round.f64(double %47)
  %49 = fptosi double %48 to i32
  switch i32 %49, label %70 [
    i32 0, label %50
    i32 1, label %53
    i32 2, label %57
    i32 3, label %61
    i32 4, label %66
  ]

50:                                               ; preds = %45
  %51 = fmul double %46, 0x400921FB54442D18
  %52 = tail call double @sin(double noundef %51) #16, !tbaa !14
  br label %m_sinpi.exit

53:                                               ; preds = %45
  %54 = fadd double %46, -5.000000e-01
  %55 = fmul double %54, 0x400921FB54442D18
  %56 = tail call double @cos(double noundef %55) #16, !tbaa !14
  br label %m_sinpi.exit

57:                                               ; preds = %45
  %58 = fsub double 1.000000e+00, %46
  %59 = fmul double %58, 0x400921FB54442D18
  %60 = tail call double @sin(double noundef %59) #16, !tbaa !14
  br label %m_sinpi.exit

61:                                               ; preds = %45
  %62 = fadd double %46, -1.500000e+00
  %63 = fmul double %62, 0x400921FB54442D18
  %64 = tail call double @cos(double noundef %63) #16, !tbaa !14
  %65 = fneg double %64
  br label %m_sinpi.exit

66:                                               ; preds = %45
  %67 = fadd double %46, -2.000000e+00
  %68 = fmul double %67, 0x400921FB54442D18
  %69 = tail call double @sin(double noundef %68) #16, !tbaa !14
  br label %m_sinpi.exit

70:                                               ; preds = %45
  unreachable

m_sinpi.exit:                                     ; preds = %50, %53, %57, %61, %66
  %.0.i = phi double [ %69, %66 ], [ %65, %61 ], [ %60, %57 ], [ %56, %53 ], [ %52, %50 ]
  %71 = tail call double @llvm.fabs.f64(double %.0.i)
  %72 = tail call double @log(double noundef %71) #16, !tbaa !14
  %73 = fsub double 0x3FF250D048E7A1BD, %72
  %74 = tail call double @llvm.log.f64(double %2), !tbaa !14
  %75 = fsub double %73, %74
  %76 = fsub double %75, %43
  br label %77

77:                                               ; preds = %m_sinpi.exit, %lanczos_sum.exit
  %.022 = phi double [ %76, %m_sinpi.exit ], [ %43, %lanczos_sum.exit ]
  %78 = tail call double @llvm.fabs.f64(double %.022) #18
  %79 = fcmp oeq double %78, 0x7FF0000000000000
  br i1 %79, label %80, label %82

80:                                               ; preds = %77
  %81 = tail call ptr @__errno_location() #17
  store i32 34, ptr %81, align 4, !tbaa !14
  br label %82

82:                                               ; preds = %77, %80, %10, %4, %16, %12
  %.0 = phi double [ 0x7FF0000000000000, %12 ], [ %18, %16 ], [ %., %4 ], [ 0.000000e+00, %10 ], [ %.022, %80 ], [ %.022, %77 ]
  ret double %.0
}